target datalayout = "e-m:e-p270:32:32-p271:32:32-p272:64:64-i64:64-i128:128-f80:128-n8:16:32:64-S128"
target triple = "x86_64-unknown-linux-gnu"

%"struct.llvh::fltSemantics" = type { i16, i16, i32, i32 }
%"class.llvh::detail::IEEEFloat" = type <{ ptr, %"union.llvh::detail::IEEEFloat::Significand", i16, i8, [5 x i8] }>
%"union.llvh::detail::IEEEFloat::Significand" = type { i64 }
%"class.llvh::APInt" = type <{ %union.anon, i32, [4 x i8] }>
%union.anon = type { i64 }

@_ZN4llvhL20semX87DoubleExtendedE = internal constant %"struct.llvh::fltSemantics" { i16 16383, i16 -16382, i32 64, i32 80 }, align 4

; Function Attrs: mustprogress nounwind uwtable
define linkonce_odr hidden noundef zeroext i1 @_ZNK4llvh5APInt12isSingleWordEv(ptr noundef nonnull align 8 dereferenceable(12) %this) #1 comdat align 2 {
entry:
  %this.addr = alloca ptr, align 8
  store ptr %this, ptr %this.addr, align 8
  %this1 = load ptr, ptr %this.addr, align 8
  %BitWidth = getelementptr inbounds %"class.llvh::APInt", ptr %this1, i32 0, i32 1
  %0 = load i32, ptr %BitWidth, align 8
  %cmp = icmp ule i32 %0, 64
  ret i1 %cmp
}

; Function Attrs: mustprogress nounwind uwtable
define linkonce_odr hidden noundef i32 @_ZN4llvh5APInt11getNumWordsEj(i32 noundef %BitWidth) #1 comdat align 2 {
entry:
  %BitWidth.addr = alloca i32, align 4
  store i32 %BitWidth, ptr %BitWidth.addr, align 4
  %0 = load i32, ptr %BitWidth.addr, align 4
  %conv = zext i32 %0 to i64
  %add = add i64 %conv, 64
  %sub = sub i64 %add, 1
  %div = udiv i64 %sub, 64
  %conv1 = trunc i64 %div to i32
  ret i32 %conv1
}

; Function Attrs: mustprogress nounwind uwtable
define internal noundef i32 @_ZN4llvhL16partCountForBitsEj(i32 noundef %bits) #1 {
entry:
  %bits.addr = alloca i32, align 4
  store i32 %bits, ptr %bits.addr, align 4
  %0 = load i32, ptr %bits.addr, align 4
  %add = add i32 %0, 64
  %sub = sub i32 %add, 1
  %div = udiv i32 %sub, 64
  ret i32 %div
}

; Function Attrs: mustprogress nounwind uwtable
define linkonce_odr noundef nonnull align 4 dereferenceable(4) ptr @_ZSt3minIjERKT_S2_S2_(ptr noundef nonnull align 4 dereferenceable(4) %__a, ptr noundef nonnull align 4 dereferenceable(4) %__b) #1 comdat {
entry:
  %retval = alloca ptr, align 8
  %__a.addr = alloca ptr, align 8
  %__b.addr = alloca ptr, align 8
  store ptr %__a, ptr %__a.addr, align 8
  store ptr %__b, ptr %__b.addr, align 8
  %0 = load ptr, ptr %__b.addr, align 8
  %1 = load i32, ptr %0, align 4
  %2 = load ptr, ptr %__a.addr, align 8
  %3 = load i32, ptr %2, align 4
  %cmp = icmp ult i32 %1, %3
  br i1 %cmp, label %if.then, label %if.end

if.then:                                          ; preds = %entry
  %4 = load ptr, ptr %__b.addr, align 8
  store ptr %4, ptr %retval, align 8
  br label %return

if.end:                                           ; preds = %entry
  %5 = load ptr, ptr %__a.addr, align 8
  store ptr %5, ptr %retval, align 8
  br label %return

return:                                           ; preds = %if.end, %if.then
  %6 = load ptr, ptr %retval, align 8
  ret ptr %6
}

; Function Attrs: mustprogress nounwind uwtable
define linkonce_odr hidden noundef ptr @_ZNK4llvh5APInt10getRawDataEv(ptr noundef nonnull align 8 dereferenceable(12) %this) #1 comdat align 2 {
entry:
  %retval = alloca ptr, align 8
  %this.addr = alloca ptr, align 8
  store ptr %this, ptr %this.addr, align 8
  %this1 = load ptr, ptr %this.addr, align 8
  %call = call noundef zeroext i1 @_ZNK4llvh5APInt12isSingleWordEv(ptr noundef nonnull align 8 dereferenceable(12) %this1)
  br i1 %call, label %if.then, label %if.end

if.then:                                          ; preds = %entry
  %U = getelementptr inbounds %"class.llvh::APInt", ptr %this1, i32 0, i32 0
  store ptr %U, ptr %retval, align 8
  br label %return

if.end:                                           ; preds = %entry
  %U2 = getelementptr inbounds %"class.llvh::APInt", ptr %this1, i32 0, i32 0
  %0 = load ptr, ptr %U2, align 8
  %arrayidx = getelementptr inbounds i64, ptr %0, i64 0
  store ptr %arrayidx, ptr %retval, align 8
  br label %return

return:                                           ; preds = %if.end, %if.then
  %1 = load ptr, ptr %retval, align 8
  ret ptr %1
}

; Function Attrs: mustprogress nounwind uwtable
define linkonce_odr hidden noundef i32 @_ZNK4llvh5APInt11getNumWordsEv(ptr noundef nonnull align 8 dereferenceable(12) %this) #1 comdat align 2 {
entry:
  %this.addr = alloca ptr, align 8
  store ptr %this, ptr %this.addr, align 8
  %this1 = load ptr, ptr %this.addr, align 8
  %BitWidth = getelementptr inbounds %"class.llvh::APInt", ptr %this1, i32 0, i32 1
  %0 = load i32, ptr %BitWidth, align 8
  %call = call noundef i32 @_ZN4llvh5APInt11getNumWordsEj(i32 noundef %0)
  ret i32 %call
}

; Function Attrs: mustprogress nounwind uwtable
define hidden noundef i32 @_ZNK4llvh6detail9IEEEFloat9partCountEv(ptr noundef nonnull align 8 dereferenceable(24) %this) #1 align 2 {
entry:
  %this.addr = alloca ptr, align 8
  store ptr %this, ptr %this.addr, align 8
  %this1 = load ptr, ptr %this.addr, align 8
  %semantics = getelementptr inbounds %"class.llvh::detail::IEEEFloat", ptr %this1, i32 0, i32 0
  %0 = load ptr, ptr %semantics, align 8
  %precision = getelementptr inbounds %"struct.llvh::fltSemantics", ptr %0, i32 0, i32 2
  %1 = load i32, ptr %precision, align 4
  %add = add i32 %1, 1
  %call = call noundef i32 @_ZN4llvhL16partCountForBitsEj(i32 noundef %add)
  ret i32 %call
}

; Function Attrs: mustprogress nounwind uwtable
define hidden noundef ptr @_ZN4llvh6detail9IEEEFloat16significandPartsEv(ptr noundef nonnull align 8 dereferenceable(24) %this) #1 align 2 {
entry:
  %retval = alloca ptr, align 8
  %this.addr = alloca ptr, align 8
  store ptr %this, ptr %this.addr, align 8
  %this1 = load ptr, ptr %this.addr, align 8
  %call = call noundef i32 @_ZNK4llvh6detail9IEEEFloat9partCountEv(ptr noundef nonnull align 8 dereferenceable(24) %this1)
  %cmp = icmp ugt i32 %call, 1
  br i1 %cmp, label %if.then, label %if.else

if.then:                                          ; preds = %entry
  %significand = getelementptr inbounds %"class.llvh::detail::IEEEFloat", ptr %this1, i32 0, i32 1
  %0 = load ptr, ptr %significand, align 8
  store ptr %0, ptr %retval, align 8
  br label %return

if.else:                                          ; preds = %entry
  %significand2 = getelementptr inbounds %"class.llvh::detail::IEEEFloat", ptr %this1, i32 0, i32 1
  store ptr %significand2, ptr %retval, align 8
  br label %return

return:                                           ; preds = %if.else, %if.then
  %1 = load ptr, ptr %retval, align 8
  ret ptr %1
}

; Function Attrs: mustprogress nounwind uwtable
define hidden void @_ZN4llvh6detail9IEEEFloat7makeNaNEbbPKNS_5APIntE(ptr noundef nonnull align 8 dereferenceable(24) %this, i1 noundef zeroext %SNaN, i1 noundef zeroext %Negative, ptr noundef %fill) #1 align 2 {
entry:
  %this.addr = alloca ptr, align 8
  %SNaN.addr = alloca i8, align 1
  %Negative.addr = alloca i8, align 1
  %fill.addr = alloca ptr, align 8
  %significand = alloca ptr, align 8
  %numParts = alloca i32, align 4
  %ref.tmp = alloca i32, align 4
  %bitsToPreserve = alloca i32, align 4
  %part = alloca i32, align 4
  %QNaNBit = alloca i32, align 4
  store ptr %this, ptr %this.addr, align 8
  %frombool = zext i1 %SNaN to i8
  store i8 %frombool, ptr %SNaN.addr, align 1
  %frombool1 = zext i1 %Negative to i8
  store i8 %frombool1, ptr %Negative.addr, align 1
  store ptr %fill, ptr %fill.addr, align 8
  %this2 = load ptr, ptr %this.addr, align 8
  %category = getelementptr inbounds %"class.llvh::detail::IEEEFloat", ptr %this2, i32 0, i32 3
  %bf.load = load i8, ptr %category, align 2
  %bf.clear = and i8 %bf.load, -8
  %bf.set = or i8 %bf.clear, 1
  store i8 %bf.set, ptr %category, align 2
  %0 = load i8, ptr %Negative.addr, align 1
  %tobool = trunc i8 %0 to i1
  %conv = zext i1 %tobool to i32
  %sign = getelementptr inbounds %"class.llvh::detail::IEEEFloat", ptr %this2, i32 0, i32 3
  %1 = trunc i32 %conv to i8
  %bf.load3 = load i8, ptr %sign, align 2
  %bf.value = and i8 %1, 1
  %bf.shl = shl i8 %bf.value, 3
  %bf.clear4 = and i8 %bf.load3, -9
  %bf.set5 = or i8 %bf.clear4, %bf.shl
  store i8 %bf.set5, ptr %sign, align 2
  %call = call noundef ptr @_ZN4llvh6detail9IEEEFloat16significandPartsEv(ptr noundef nonnull align 8 dereferenceable(24) %this2)
  store ptr %call, ptr %significand, align 8
  %call6 = call noundef i32 @_ZNK4llvh6detail9IEEEFloat9partCountEv(ptr noundef nonnull align 8 dereferenceable(24) %this2)
  store i32 %call6, ptr %numParts, align 4
  %2 = load ptr, ptr %fill.addr, align 8
  %tobool7 = icmp ne ptr %2, null
  br i1 %tobool7, label %lor.lhs.false, label %if.then

lor.lhs.false:                                    ; preds = %entry
  %3 = load ptr, ptr %fill.addr, align 8
  %call8 = call noundef i32 @_ZNK4llvh5APInt11getNumWordsEv(ptr noundef nonnull align 8 dereferenceable(12) %3)
  %4 = load i32, ptr %numParts, align 4
  %cmp = icmp ult i32 %call8, %4
  br i1 %cmp, label %if.then, label %if.end

if.then:                                          ; preds = %lor.lhs.false, %entry
  %5 = load ptr, ptr %significand, align 8
  %6 = load i32, ptr %numParts, align 4
  call void @_ZN4llvh5APInt5tcSetEPmmj(ptr noundef %5, i64 noundef 0, i32 noundef %6)
  br label %if.end

if.end:                                           ; preds = %if.then, %lor.lhs.false
  %7 = load ptr, ptr %fill.addr, align 8
  %tobool9 = icmp ne ptr %7, null
  br i1 %tobool9, label %if.then10, label %if.end19

if.then10:                                        ; preds = %if.end
  %8 = load ptr, ptr %significand, align 8
  %9 = load ptr, ptr %fill.addr, align 8
  %call11 = call noundef ptr @_ZNK4llvh5APInt10getRawDataEv(ptr noundef nonnull align 8 dereferenceable(12) %9)
  %10 = load ptr, ptr %fill.addr, align 8
  %call12 = call noundef i32 @_ZNK4llvh5APInt11getNumWordsEv(ptr noundef nonnull align 8 dereferenceable(12) %10)
  store i32 %call12, ptr %ref.tmp, align 4
  %call13 = call noundef nonnull align 4 dereferenceable(4) ptr @_ZSt3minIjERKT_S2_S2_(ptr noundef nonnull align 4 dereferenceable(4) %ref.tmp, ptr noundef nonnull align 4 dereferenceable(4) %numParts)
  %11 = load i32, ptr %call13, align 4
  call void @_ZN4llvh5APInt8tcAssignEPmPKmj(ptr noundef %8, ptr noundef %call11, i32 noundef %11)
  %semantics = getelementptr inbounds %"class.llvh::detail::IEEEFloat", ptr %this2, i32 0, i32 0
  %12 = load ptr, ptr %semantics, align 8
  %precision = getelementptr inbounds %"struct.llvh::fltSemantics", ptr %12, i32 0, i32 2
  %13 = load i32, ptr %precision, align 4
  %sub = sub i32 %13, 1
  store i32 %sub, ptr %bitsToPreserve, align 4
  %14 = load i32, ptr %bitsToPreserve, align 4
  %div = udiv i32 %14, 64
  store i32 %div, ptr %part, align 4
  %15 = load i32, ptr %bitsToPreserve, align 4
  %rem = urem i32 %15, 64
  store i32 %rem, ptr %bitsToPreserve, align 4
  %16 = load i32, ptr %bitsToPreserve, align 4
  %sh_prom = zext i32 %16 to i64
  %shl = shl i64 1, %sh_prom
  %sub14 = sub i64 %shl, 1
  %17 = load ptr, ptr %significand, align 8
  %18 = load i32, ptr %part, align 4
  %idxprom = zext i32 %18 to i64
  %arrayidx = getelementptr inbounds i64, ptr %17, i64 %idxprom
  %19 = load i64, ptr %arrayidx, align 8
  %and = and i64 %19, %sub14
  store i64 %and, ptr %arrayidx, align 8
  %20 = load i32, ptr %part, align 4
  %inc = add i32 %20, 1
  store i32 %inc, ptr %part, align 4
  br label %for.cond

for.cond:                                         ; preds = %for.inc, %if.then10
  %21 = load i32, ptr %part, align 4
  %22 = load i32, ptr %numParts, align 4
  %cmp15 = icmp ne i32 %21, %22
  br i1 %cmp15, label %for.body, label %for.end

for.body:                                         ; preds = %for.cond
  %23 = load ptr, ptr %significand, align 8
  %24 = load i32, ptr %part, align 4
  %idxprom16 = zext i32 %24 to i64
  %arrayidx17 = getelementptr inbounds i64, ptr %23, i64 %idxprom16
  store i64 0, ptr %arrayidx17, align 8
  br label %for.inc

for.inc:                                          ; preds = %for.body
  %25 = load i32, ptr %part, align 4
  %inc18 = add i32 %25, 1
  store i32 %inc18, ptr %part, align 4
  br label %for.cond, !llvm.loop !4

for.end:                                          ; preds = %for.cond
  br label %if.end19

if.end19:                                         ; preds = %for.end, %if.end
  %semantics20 = getelementptr inbounds %"class.llvh::detail::IEEEFloat", ptr %this2, i32 0, i32 0
  %26 = load ptr, ptr %semantics20, align 8
  %precision21 = getelementptr inbounds %"struct.llvh::fltSemantics", ptr %26, i32 0, i32 2
  %27 = load i32, ptr %precision21, align 4
  %sub22 = sub i32 %27, 2
  store i32 %sub22, ptr %QNaNBit, align 4
  %28 = load i8, ptr %SNaN.addr, align 1
  %tobool23 = trunc i8 %28 to i1
  br i1 %tobool23, label %if.then24, label %if.else

if.then24:                                        ; preds = %if.end19
  %29 = load ptr, ptr %significand, align 8
  %30 = load i32, ptr %QNaNBit, align 4
  call void @_ZN4llvh5APInt10tcClearBitEPmj(ptr noundef %29, i32 noundef %30)
  %31 = load ptr, ptr %significand, align 8
  %32 = load i32, ptr %numParts, align 4
  %call25 = call noundef zeroext i1 @_ZN4llvh5APInt8tcIsZeroEPKmj(ptr noundef %31, i32 noundef %32)
  br i1 %call25, label %if.then26, label %if.end28

if.then26:                                        ; preds = %if.then24
  %33 = load ptr, ptr %significand, align 8
  %34 = load i32, ptr %QNaNBit, align 4
  %sub27 = sub i32 %34, 1
  call void @_ZN4llvh5APInt8tcSetBitEPmj(ptr noundef %33, i32 noundef %sub27)
  br label %if.end28

if.end28:                                         ; preds = %if.then26, %if.then24
  br label %if.end29

if.else:                                          ; preds = %if.end19
  %35 = load ptr, ptr %significand, align 8
  %36 = load i32, ptr %QNaNBit, align 4
  call void @_ZN4llvh5APInt8tcSetBitEPmj(ptr noundef %35, i32 noundef %36)
  br label %if.end29

if.end29:                                         ; preds = %if.else, %if.end28
  %semantics30 = getelementptr inbounds %"class.llvh::detail::IEEEFloat", ptr %this2, i32 0, i32 0
  %37 = load ptr, ptr %semantics30, align 8
  %cmp31 = icmp eq ptr %37, @_ZN4llvhL20semX87DoubleExtendedE
  br i1 %cmp31, label %if.then32, label %if.end33

if.then32:                                        ; preds = %if.end29
  %38 = load ptr, ptr %significand, align 8
  %39 = load i32, ptr %QNaNBit, align 4
  %add = add i32 %39, 1
  call void @_ZN4llvh5APInt8tcSetBitEPmj(ptr noundef %38, i32 noundef %add)
  br label %if.end33

if.end33:                                         ; preds = %if.then32, %if.end29
  ret void
}