; Function Attrs: mustprogress nounwind uwtable
define hidden void @_ZN4llvh6detail9IEEEFloat7makeNaNEbbPKNS_5APIntE(ptr noundef nonnull align 8 dereferenceable(24) %this, i1 noundef zeroext %SNaN, i1 noundef zeroext %Negative, ptr noundef %fill) local_unnamed_addr #2 align 2 {
entry:
  %category = getelementptr inbounds nuw i8, ptr %this, i64 18
  %bf.load = load i8, ptr %category, align 2
  %bf.clear = and i8 %bf.load, -16
  %bf.set = select i1 %Negative, i8 9, i8 1
  %bf.set5 = or disjoint i8 %bf.set, %bf.clear
  store i8 %bf.set5, ptr %category, align 2
  %0 = load ptr, ptr %this, align 8
  %precision.i.i = getelementptr inbounds nuw i8, ptr %0, i64 4
  %1 = load i32, ptr %precision.i.i, align 4
  %2 = add i32 %1, -64
  %cmp.i = icmp ult i32 %2, -128
  %significand.i = getelementptr inbounds nuw i8, ptr %this, i64 8
  %3 = load ptr, ptr %significand.i, align 8
  %retval.0.i = select i1 %cmp.i, ptr %3, ptr %significand.i
  %sub.i.i = add i32 %1, 64
  %div1.i.i = lshr i32 %sub.i.i, 6
  %tobool7.not = icmp eq ptr %fill, null
  br i1 %tobool7.not, label %if.end.thread38, label %lor.lhs.false

if.end.thread38:                                  ; preds = %entry
  tail call void @_ZN4llvh5APInt5tcSetEPmmj(ptr noundef %retval.0.i, i64 noundef 0, i32 noundef %div1.i.i) #26
  br label %if.end19

lor.lhs.false:                                    ; preds = %entry
  %BitWidth.i = getelementptr inbounds nuw i8, ptr %fill, i64 8
  %4 = load i32, ptr %BitWidth.i, align 8
  %conv.i.i = zext i32 %4 to i64
  %sub.i.i23 = add nuw nsw i64 %conv.i.i, 63
  %div1.i.i24 = lshr i64 %sub.i.i23, 6
  %conv1.i.i = trunc nuw nsw i64 %div1.i.i24 to i32
  %cmp = icmp samesign ugt i32 %div1.i.i, %conv1.i.i
  br i1 %cmp, label %if.end, label %if.then10

if.end:                                           ; preds = %lor.lhs.false
  tail call void @_ZN4llvh5APInt5tcSetEPmmj(ptr noundef %retval.0.i, i64 noundef 0, i32 noundef %div1.i.i) #26
  %.pre = load i32, ptr %BitWidth.i, align 8
  %.pre42 = zext i32 %.pre to i64
  %.pre43 = add nuw nsw i64 %.pre42, 63
  %.pre44 = lshr i64 %.pre43, 6
  %.pre45 = trunc nuw nsw i64 %.pre44 to i32
  br label %if.then10

if.then10:                                        ; preds = %lor.lhs.false, %if.end
  %conv1.i.i30.pre-phi = phi i32 [ %conv1.i.i, %lor.lhs.false ], [ %.pre45, %if.end ]
  %5 = phi i32 [ %4, %lor.lhs.false ], [ %.pre, %if.end ]
  %cmp.i.i = icmp ult i32 %5, 65
  %6 = load ptr, ptr %fill, align 8
  %retval.0.i25 = select i1 %cmp.i.i, ptr %fill, ptr %6
  %.sroa.speculated = tail call i32 @llvm.umin.i32(i32 %div1.i.i, i32 %conv1.i.i30.pre-phi)
  tail call void @_ZN4llvh5APInt8tcAssignEPmPKmj(ptr noundef %retval.0.i, ptr noundef %retval.0.i25, i32 noundef %.sroa.speculated) #26
  %7 = load ptr, ptr %this, align 8
  %precision = getelementptr inbounds nuw i8, ptr %7, i64 4
  %8 = load i32, ptr %precision, align 4
  %sub = add i32 %8, -1
  %div22 = lshr i32 %sub, 6
  %rem = and i32 %sub, 63
  %sh_prom = zext nneg i32 %rem to i64
  %notmask = shl nsw i64 -1, %sh_prom
  %sub14 = xor i64 %notmask, -1
  %idxprom = zext nneg i32 %div22 to i64
  %arrayidx = getelementptr inbounds nuw i64, ptr %retval.0.i, i64 %idxprom
  %9 = load i64, ptr %arrayidx, align 8
  %and = and i64 %9, %sub14
  store i64 %and, ptr %arrayidx, align 8
  %part.039 = add nuw nsw i32 %div22, 1
  %cmp15.not40 = icmp eq i32 %part.039, %div1.i.i
  br i1 %cmp15.not40, label %if.end19, label %for.body

for.body:                                         ; preds = %if.then10, %for.body
  %part.041 = phi i32 [ %part.0, %for.body ], [ %part.039, %if.then10 ]
  %idxprom16 = zext i32 %part.041 to i64
  %arrayidx17 = getelementptr inbounds nuw i64, ptr %retval.0.i, i64 %idxprom16
  store i64 0, ptr %arrayidx17, align 8
  %part.0 = add i32 %part.041, 1
  %cmp15.not = icmp eq i32 %part.0, %div1.i.i
  br i1 %cmp15.not, label %if.end19, label %for.body, !llvm.loop !4

if.end19:                                         ; preds = %for.body, %if.then10, %if.end.thread38
  %10 = load ptr, ptr %this, align 8
  %precision21 = getelementptr inbounds nuw i8, ptr %10, i64 4
  %11 = load i32, ptr %precision21, align 4
  %sub22 = add i32 %11, -2
  br i1 %SNaN, label %if.then24, label %if.end29.sink.split

if.then24:                                        ; preds = %if.end19
  tail call void @_ZN4llvh5APInt10tcClearBitEPmj(ptr noundef %retval.0.i, i32 noundef %sub22) #26
  %call25 = tail call noundef zeroext i1 @_ZN4llvh5APInt8tcIsZeroEPKmj(ptr noundef %retval.0.i, i32 noundef %div1.i.i) #26
  br i1 %call25, label %if.then26, label %if.end29

if.then26:                                        ; preds = %if.then24
  %sub27 = add i32 %11, -3
  br label %if.end29.sink.split

if.end29.sink.split:                              ; preds = %if.end19, %if.then26
  %sub27.sink = phi i32 [ %sub27, %if.then26 ], [ %sub22, %if.end19 ]
  tail call void @_ZN4llvh5APInt8tcSetBitEPmj(ptr noundef %retval.0.i, i32 noundef %sub27.sink) #26
  br label %if.end29

if.end29:                                         ; preds = %if.end29.sink.split, %if.then24
  %12 = load ptr, ptr %this, align 8
  %cmp31 = icmp eq ptr %12, @_ZN4llvhL20semX87DoubleExtendedE
  br i1 %cmp31, label %if.then32, label %if.end33

if.then32:                                        ; preds = %if.end29
  %add = add i32 %11, -1
  tail call void @_ZN4llvh5APInt8tcSetBitEPmj(ptr noundef %retval.0.i, i32 noundef %add) #26
  br label %if.end33

if.end33:                                         ; preds = %if.then32, %if.end29
  ret void
}